target datalayout = "e-m:e-p270:32:32-p271:32:32-p272:64:64-i64:64-i128:128-f80:128-n8:16:32:64-S128"
target triple = "x86_64-pc-linux-gnu"

%struct.KDF_SSKDF = type { ptr, ptr, %struct.PROV_DIGEST, ptr, i64, ptr, i64, ptr, i64, i64, i32 }
%struct.PROV_DIGEST = type { ptr, ptr, ptr }
%struct.ossl_param_st = type { ptr, i32, ptr, i64, i64 }

@.str = private unnamed_addr constant [50 x i8] c"../openssl/providers/implementations/kdfs/sskdf.c\00", align 1
@__func__.x963kdf_derive = private unnamed_addr constant [15 x i8] c"x963kdf_derive\00", align 1

; Function Attrs: inlinehint nounwind uwtable
define internal i32 @ossl_param_is_empty(ptr noundef %0) #5 {
  %2 = alloca ptr, align 8
  store ptr %0, ptr %2, align 8, !tbaa !27
  %3 = load ptr, ptr %2, align 8, !tbaa !27
  %4 = icmp eq ptr %3, null
  br i1 %4, label %10, label %5

5:                                                ; preds = %1
  %6 = load ptr, ptr %2, align 8, !tbaa !27
  %7 = getelementptr inbounds nuw %struct.ossl_param_st, ptr %6, i32 0, i32 0
  %8 = load ptr, ptr %7, align 8, !tbaa !40
  %9 = icmp eq ptr %8, null
  br label %10

10:                                               ; preds = %5, %1
  %11 = phi i1 [ true, %1 ], [ %9, %5 ]
  %12 = zext i1 %11 to i32
  ret i32 %12
}

; Function Attrs: nounwind uwtable
define internal i32 @x963kdf_set_ctx_params(ptr noundef %0, ptr noundef %1) #0 {
  %3 = alloca i32, align 4
  %4 = alloca ptr, align 8
  %5 = alloca ptr, align 8
  %6 = alloca ptr, align 8
  %7 = alloca i32, align 4
  store ptr %0, ptr %4, align 8, !tbaa !3
  store ptr %1, ptr %5, align 8, !tbaa !27
  call void @llvm.lifetime.start.p0(i64 8, ptr %6) #6
  %8 = load ptr, ptr %4, align 8, !tbaa !3
  store ptr %8, ptr %6, align 8, !tbaa !3
  %9 = load ptr, ptr %5, align 8, !tbaa !27
  %10 = call i32 @ossl_param_is_empty(ptr noundef %9)
  %11 = icmp ne i32 %10, 0
  br i1 %11, label %12, label %13

12:                                               ; preds = %2
  store i32 1, ptr %3, align 4
  store i32 1, ptr %7, align 4
  br label %20

13:                                               ; preds = %2
  %14 = load ptr, ptr %6, align 8, !tbaa !3
  %15 = load ptr, ptr %5, align 8, !tbaa !27
  %16 = call i32 @sskdf_common_set_ctx_params(ptr noundef %14, ptr noundef %15)
  %17 = icmp ne i32 %16, 0
  br i1 %17, label %19, label %18

18:                                               ; preds = %13
  store i32 0, ptr %3, align 4
  store i32 1, ptr %7, align 4
  br label %20

19:                                               ; preds = %13
  store i32 1, ptr %3, align 4
  store i32 1, ptr %7, align 4
  br label %20

20:                                               ; preds = %19, %18, %12
  call void @llvm.lifetime.end.p0(i64 8, ptr %6) #6
  %21 = load i32, ptr %3, align 4
  ret i32 %21
}

; Function Attrs: nounwind uwtable
define internal i32 @x963kdf_derive(ptr noundef %0, ptr noundef %1, i64 noundef %2, ptr noundef %3) #0 {
  %5 = alloca i32, align 4
  %6 = alloca ptr, align 8
  %7 = alloca ptr, align 8
  %8 = alloca i64, align 8
  %9 = alloca ptr, align 8
  %10 = alloca ptr, align 8
  %11 = alloca ptr, align 8
  %12 = alloca i32, align 4
  store ptr %0, ptr %6, align 8, !tbaa !3
  store ptr %1, ptr %7, align 8, !tbaa !25
  store i64 %2, ptr %8, align 8, !tbaa !26
  store ptr %3, ptr %9, align 8, !tbaa !27
  call void @llvm.lifetime.start.p0(i64 8, ptr %10) #6
  %13 = load ptr, ptr %6, align 8, !tbaa !3
  store ptr %13, ptr %10, align 8, !tbaa !3
  call void @llvm.lifetime.start.p0(i64 8, ptr %11) #6
  %14 = call i32 @ossl_prov_is_running()
  %15 = icmp ne i32 %14, 0
  br i1 %15, label %16, label %21

16:                                               ; preds = %4
  %17 = load ptr, ptr %10, align 8, !tbaa !3
  %18 = load ptr, ptr %9, align 8, !tbaa !27
  %19 = call i32 @x963kdf_set_ctx_params(ptr noundef %17, ptr noundef %18)
  %20 = icmp ne i32 %19, 0
  br i1 %20, label %22, label %21

21:                                               ; preds = %16, %4
  store i32 0, ptr %5, align 4
  store i32 1, ptr %12, align 4
  br label %58

22:                                               ; preds = %16
  %23 = load ptr, ptr %10, align 8, !tbaa !3
  %24 = getelementptr inbounds nuw %struct.KDF_SSKDF, ptr %23, i32 0, i32 3
  %25 = load ptr, ptr %24, align 8, !tbaa !21
  %26 = icmp eq ptr %25, null
  br i1 %26, label %27, label %28

27:                                               ; preds = %22
  call void @ERR_new()
  call void @ERR_set_debug(ptr noundef @.str, i32 noundef 532, ptr noundef @__func__.x963kdf_derive)
  call void (i32, i32, ptr, ...) @ERR_set_error(i32 noundef 57, i32 noundef 132, ptr noundef null)
  store i32 0, ptr %5, align 4
  store i32 1, ptr %12, align 4
  br label %58

28:                                               ; preds = %22
  %29 = load ptr, ptr %10, align 8, !tbaa !3
  %30 = getelementptr inbounds nuw %struct.KDF_SSKDF, ptr %29, i32 0, i32 1
  %31 = load ptr, ptr %30, align 8, !tbaa !16
  %32 = icmp ne ptr %31, null
  br i1 %32, label %33, label %34

33:                                               ; preds = %28
  call void @ERR_new()
  call void @ERR_set_debug(ptr noundef @.str, i32 noundef 537, ptr noundef @__func__.x963kdf_derive)
  call void (i32, i32, ptr, ...) @ERR_set_error(i32 noundef 57, i32 noundef 136, ptr noundef null)
  store i32 0, ptr %5, align 4
  store i32 1, ptr %12, align 4
  br label %58

34:                                               ; preds = %28
  %35 = load ptr, ptr %10, align 8, !tbaa !3
  %36 = getelementptr inbounds nuw %struct.KDF_SSKDF, ptr %35, i32 0, i32 2
  %37 = call ptr @ossl_prov_digest_md(ptr noundef %36)
  store ptr %37, ptr %11, align 8, !tbaa !29
  %38 = load ptr, ptr %11, align 8, !tbaa !29
  %39 = icmp eq ptr %38, null
  br i1 %39, label %40, label %41

40:                                               ; preds = %34
  call void @ERR_new()
  call void @ERR_set_debug(ptr noundef @.str, i32 noundef 544, ptr noundef @__func__.x963kdf_derive)
  call void (i32, i32, ptr, ...) @ERR_set_error(i32 noundef 57, i32 noundef 129, ptr noundef null)
  store i32 0, ptr %5, align 4
  store i32 1, ptr %12, align 4
  br label %58

41:                                               ; preds = %34
  %42 = load ptr, ptr %11, align 8, !tbaa !29
  %43 = load ptr, ptr %10, align 8, !tbaa !3
  %44 = getelementptr inbounds nuw %struct.KDF_SSKDF, ptr %43, i32 0, i32 3
  %45 = load ptr, ptr %44, align 8, !tbaa !21
  %46 = load ptr, ptr %10, align 8, !tbaa !3
  %47 = getelementptr inbounds nuw %struct.KDF_SSKDF, ptr %46, i32 0, i32 4
  %48 = load i64, ptr %47, align 8, !tbaa !22
  %49 = load ptr, ptr %10, align 8, !tbaa !3
  %50 = getelementptr inbounds nuw %struct.KDF_SSKDF, ptr %49, i32 0, i32 5
  %51 = load ptr, ptr %50, align 8, !tbaa !17
  %52 = load ptr, ptr %10, align 8, !tbaa !3
  %53 = getelementptr inbounds nuw %struct.KDF_SSKDF, ptr %52, i32 0, i32 6
  %54 = load i64, ptr %53, align 8, !tbaa !18
  %55 = load ptr, ptr %7, align 8, !tbaa !25
  %56 = load i64, ptr %8, align 8, !tbaa !26
  %57 = call i32 @SSKDF_hash_kdm(ptr noundef %42, ptr noundef %45, i64 noundef %48, ptr noundef %51, i64 noundef %54, i32 noundef 1, ptr noundef %55, i64 noundef %56)
  store i32 %57, ptr %5, align 4
  store i32 1, ptr %12, align 4
  br label %58

58:                                               ; preds = %41, %40, %33, %27, %21
  call void @llvm.lifetime.end.p0(i64 8, ptr %11) #6
  call void @llvm.lifetime.end.p0(i64 8, ptr %10) #6
  %59 = load i32, ptr %5, align 4
  ret i32 %59
}