; Function Attrs: nounwind uwtable
define internal range(i32 0, 2) i32 @x963kdf_derive(ptr noundef %0, ptr noundef %1, i64 noundef %2, ptr noundef %3) #0 {
  %5 = tail call i32 @ossl_prov_is_running() #7
  %.not = icmp eq i32 %5, 0
  br i1 %.not, label %32, label %6

6:                                                ; preds = %4
  %7 = icmp eq ptr %3, null
  br i1 %7, label %x963kdf_set_ctx_params.exit.thread, label %ossl_param_is_empty.exit.i

ossl_param_is_empty.exit.i:                       ; preds = %6
  %8 = load ptr, ptr %3, align 8, !tbaa !24
  %.not.i = icmp eq ptr %8, null
  br i1 %.not.i, label %x963kdf_set_ctx_params.exit.thread, label %x963kdf_set_ctx_params.exit

x963kdf_set_ctx_params.exit:                      ; preds = %ossl_param_is_empty.exit.i
  %9 = tail call fastcc i32 @sskdf_common_set_ctx_params(ptr noundef %0, ptr noundef nonnull %3)
  %.not15 = icmp eq i32 %9, 0
  br i1 %.not15, label %32, label %x963kdf_set_ctx_params.exit.thread

x963kdf_set_ctx_params.exit.thread:               ; preds = %6, %ossl_param_is_empty.exit.i, %x963kdf_set_ctx_params.exit
  %10 = getelementptr inbounds nuw i8, ptr %0, i64 40
  %11 = load ptr, ptr %10, align 8, !tbaa !20
  %12 = icmp eq ptr %11, null
  br i1 %12, label %13, label %14

13:                                               ; preds = %x963kdf_set_ctx_params.exit.thread
  tail call void @ERR_new() #7
  tail call void @ERR_set_debug(ptr noundef nonnull @.str, i32 noundef 532, ptr noundef nonnull @__func__.x963kdf_derive) #7
  tail call void (i32, i32, ptr, ...) @ERR_set_error(i32 noundef 57, i32 noundef 132, ptr noundef null) #7
  br label %32

14:                                               ; preds = %x963kdf_set_ctx_params.exit.thread
  %15 = getelementptr inbounds nuw i8, ptr %0, i64 8
  %16 = load ptr, ptr %15, align 8, !tbaa !15
  %.not16 = icmp eq ptr %16, null
  br i1 %.not16, label %18, label %17

17:                                               ; preds = %14
  tail call void @ERR_new() #7
  tail call void @ERR_set_debug(ptr noundef nonnull @.str, i32 noundef 537, ptr noundef nonnull @__func__.x963kdf_derive) #7
  tail call void (i32, i32, ptr, ...) @ERR_set_error(i32 noundef 57, i32 noundef 136, ptr noundef null) #7
  br label %32

18:                                               ; preds = %14
  %19 = getelementptr inbounds nuw i8, ptr %0, i64 16
  %20 = tail call ptr @ossl_prov_digest_md(ptr noundef nonnull %19) #7
  %21 = icmp eq ptr %20, null
  br i1 %21, label %22, label %23

22:                                               ; preds = %18
  tail call void @ERR_new() #7
  tail call void @ERR_set_debug(ptr noundef nonnull @.str, i32 noundef 544, ptr noundef nonnull @__func__.x963kdf_derive) #7
  tail call void (i32, i32, ptr, ...) @ERR_set_error(i32 noundef 57, i32 noundef 129, ptr noundef null) #7
  br label %32

23:                                               ; preds = %18
  %24 = load ptr, ptr %10, align 8, !tbaa !20
  %25 = getelementptr inbounds nuw i8, ptr %0, i64 48
  %26 = load i64, ptr %25, align 8, !tbaa !21
  %27 = getelementptr inbounds nuw i8, ptr %0, i64 56
  %28 = load ptr, ptr %27, align 8, !tbaa !16
  %29 = getelementptr inbounds nuw i8, ptr %0, i64 64
  %30 = load i64, ptr %29, align 8, !tbaa !17
  %31 = tail call fastcc i32 @SSKDF_hash_kdm(ptr noundef %20, ptr noundef %24, i64 noundef %26, ptr noundef %28, i64 noundef %30, i32 noundef 1, ptr noundef %1, i64 noundef %2)
  br label %32

32:                                               ; preds = %4, %x963kdf_set_ctx_params.exit, %23, %22, %17, %13
  %.0 = phi i32 [ 0, %13 ], [ 0, %17 ], [ 0, %22 ], [ %31, %23 ], [ 0, %x963kdf_set_ctx_params.exit ], [ 0, %4 ]
  ret i32 %.0
}